; Function Attrs: mustprogress nofree nounwind willreturn memory(read) uwtable
define hidden noundef zeroext i1 @_ZNK4cvc58internal6theory5arith6linear14ArithVariables18integralAssignmentEj(ptr nocapture noundef nonnull readonly align 8 dereferenceable(568) %this, i32 noundef %x) local_unnamed_addr #11 align 2 {
entry:
  %d_image.i.i = getelementptr inbounds i8, ptr %this, i64 48
  %conv.i.i = zext i32 %x to i64
  %0 = load ptr, ptr %d_image.i.i, align 8
  %d_assignment.i = getelementptr inbounds %"class.cvc5::internal::theory::arith::linear::ArithVariables::VarInfo", ptr %0, i64 %conv.i.i, i32 2
  %_mp_size.i.i.i.i = getelementptr inbounds i8, ptr %d_assignment.i, i64 36
  %1 = load i32, ptr %_mp_size.i.i.i.i, align 4
  %cmp6.i.not.i.i.i = icmp eq i32 %1, 0
  br i1 %cmp6.i.not.i.i.i, label %if.then.i, label %_ZNK4cvc58internal13DeltaRational10isIntegralEv.exit

if.then.i:                                        ; preds = %entry
  %_mp_den.i.i.i = getelementptr inbounds i8, ptr %d_assignment.i, i64 16
  %call2.i.i = tail call i32 @__gmpz_cmp_ui(ptr noundef nonnull %_mp_den.i.i.i, i64 noundef 1) #28
  %cmp.i.i = icmp eq i32 %call2.i.i, 0
  br label %_ZNK4cvc58internal13DeltaRational10isIntegralEv.exit

_ZNK4cvc58internal13DeltaRational10isIntegralEv.exit: ; preds = %entry, %if.then.i
  %retval.0.i = phi i1 [ %cmp.i.i, %if.then.i ], [ false, %entry ]
  ret i1 %retval.0.i
}